; Function Attrs: mustprogress nounwind uwtable
define dso_local void @_ZN4llvm15MetadataAsValueC2EPNS_4TypeEPNS_8MetadataE(ptr noundef nonnull align 8 dereferenceable(32) %0, ptr noundef %1, ptr noundef %2) unnamed_addr #0 align 2 {
  tail call void @_ZN4llvm5ValueC2EPNS_4TypeEj(ptr noundef nonnull align 8 dereferenceable(24) %0, ptr noundef %1, i32 noundef 24) #23
  %4 = getelementptr inbounds nuw i8, ptr %0, i64 24
  store ptr %2, ptr %4, align 8
  %.not.i = icmp eq ptr %2, null
  br i1 %.not.i, label %_ZN4llvm15MetadataAsValue5trackEv.exit, label %5

5:                                                ; preds = %3
  %6 = ptrtoint ptr %0 to i64
  %7 = tail call noundef zeroext i1 @_ZN4llvm16MetadataTracking5trackEPvRNS_8MetadataENS_12PointerUnionIJPNS_15MetadataAsValueEPS2_PNS_14DebugValueUserEEEE(ptr noundef nonnull %4, ptr noundef nonnull align 4 dereferenceable(8) %2, i64 %6)
  br label %_ZN4llvm15MetadataAsValue5trackEv.exit

_ZN4llvm15MetadataAsValue5trackEv.exit:           ; preds = %3, %5
  ret void
}